; Function Attrs: nounwind uwtable
define void @lv_obj_set_scroll_snap_x(ptr noundef %0, i32 noundef %1) local_unnamed_addr #0 {
  tail call void @lv_obj_allocate_spec_attr(ptr noundef %0) #5
  %3 = trunc i32 %1 to i16
  %4 = getelementptr inbounds nuw i8, ptr %0, i64 16
  %5 = load ptr, ptr %4, align 8, !tbaa !3
  %6 = getelementptr inbounds nuw i8, ptr %5, i64 66
  %7 = load i16, ptr %6, align 2
  %8 = shl i16 %3, 2
  %9 = and i16 %8, 12
  %10 = and i16 %7, -13
  %11 = or disjoint i16 %10, %9
  store i16 %11, ptr %6, align 2
  ret void
}